; ModuleID = 'source-C-CXX/34/609.c'
source_filename = "source-C-CXX/34/609.c"
target datalayout = "e-m:e-p270:32:32-p271:32:32-p272:64:64-i64:64-f80:128-n8:16:32:64-S128"
target triple = "x86_64-pc-linux-gnu"

@.str = private unnamed_addr constant [6 x i8] c"%d,%d\00", align 1
@.str.1 = private unnamed_addr constant [3 x i8] c"%d\00", align 1
@.str.2 = private unnamed_addr constant [7 x i8] c"%d+%d\0A\00", align 1
@str = private unnamed_addr constant [3 x i8] c"No\00", align 1

; Function Attrs: nofree nounwind sspstrong uwtable
define dso_local void @main() local_unnamed_addr #0 {
  %1 = alloca i32, align 4
  %2 = alloca i32, align 4
  %3 = alloca [8 x [8 x i32]], align 16
  %4 = alloca [8 x i32], align 16
  %5 = bitcast i32* %1 to i8*
  call void @llvm.lifetime.start.p0i8(i64 4, i8* nonnull %5) #5
  %6 = bitcast i32* %2 to i8*
  call void @llvm.lifetime.start.p0i8(i64 4, i8* nonnull %6) #5
  %7 = bitcast [8 x [8 x i32]]* %3 to i8*
  call void @llvm.lifetime.start.p0i8(i64 256, i8* nonnull %7) #5
  %8 = bitcast [8 x i32]* %4 to i8*
  call void @llvm.lifetime.start.p0i8(i64 32, i8* nonnull %8) #5
  call void @llvm.memset.p0i8.i64(i8* noundef nonnull align 16 dereferenceable(32) %8, i8 0, i64 32, i1 false)
  %9 = call i32 (i8*, ...) @__isoc99_scanf(i8* getelementptr inbounds ([6 x i8], [6 x i8]* @.str, i64 0, i64 0), i32* nonnull %1, i32* nonnull %2)
  %10 = load i32, i32* %1, align 4, !tbaa !5
  %11 = icmp sgt i32 %10, 0
  br i1 %11, label %12, label %113

12:                                               ; preds = %0
  %13 = load i32, i32* %2, align 4, !tbaa !5
  %14 = icmp sgt i32 %13, 0
  br i1 %14, label %15, label %22

15:                                               ; preds = %12, %34
  %16 = phi i32 [ %35, %34 ], [ %10, %12 ]
  %17 = phi i32 [ %36, %34 ], [ %13, %12 ]
  %18 = phi i64 [ %37, %34 ], [ 0, %12 ]
  %19 = icmp sgt i32 %17, 0
  br i1 %19, label %24, label %34

20:                                               ; preds = %34
  %21 = icmp sgt i32 %35, 0
  br i1 %21, label %22, label %113

22:                                               ; preds = %12, %20
  %23 = phi i32 [ %10, %12 ], [ %35, %20 ]
  br label %40

24:                                               ; preds = %15, %24
  %25 = phi i64 [ %28, %24 ], [ 0, %15 ]
  %26 = getelementptr inbounds [8 x [8 x i32]], [8 x [8 x i32]]* %3, i64 0, i64 %18, i64 %25
  %27 = call i32 (i8*, ...) @__isoc99_scanf(i8* getelementptr inbounds ([3 x i8], [3 x i8]* @.str.1, i64 0, i64 0), i32* nonnull %26)
  %28 = add nuw nsw i64 %25, 1
  %29 = load i32, i32* %2, align 4, !tbaa !5
  %30 = sext i32 %29 to i64
  %31 = icmp slt i64 %28, %30
  br i1 %31, label %24, label %32, !llvm.loop !9

32:                                               ; preds = %24
  %33 = load i32, i32* %1, align 4, !tbaa !5
  br label %34

34:                                               ; preds = %32, %15
  %35 = phi i32 [ %33, %32 ], [ %16, %15 ]
  %36 = phi i32 [ %29, %32 ], [ %17, %15 ]
  %37 = add nuw nsw i64 %18, 1
  %38 = sext i32 %35 to i64
  %39 = icmp slt i64 %37, %38
  br i1 %39, label %15, label %20, !llvm.loop !11

40:                                               ; preds = %22, %105
  %41 = phi i32 [ %106, %105 ], [ %23, %22 ]
  %42 = phi i64 [ %108, %105 ], [ 0, %22 ]
  %43 = phi i32 [ %107, %105 ], [ 0, %22 ]
  %44 = phi i32 [ %59, %105 ], [ 0, %22 ]
  %45 = load i32, i32* %2, align 4, !tbaa !5
  %46 = icmp sgt i32 %45, 1
  br i1 %46, label %47, label %58

47:                                               ; preds = %40
  %48 = add nsw i32 %45, -1
  %49 = zext i32 %48 to i64
  %50 = getelementptr inbounds [8 x [8 x i32]], [8 x [8 x i32]]* %3, i64 0, i64 %42, i64 %49
  %51 = load i32, i32* %50, align 4, !tbaa !5
  %52 = add nsw i32 %45, -2
  %53 = zext i32 %52 to i64
  %54 = getelementptr inbounds [8 x [8 x i32]], [8 x [8 x i32]]* %3, i64 0, i64 %42, i64 %53
  %55 = load i32, i32* %54, align 4, !tbaa !5
  %56 = icmp sgt i32 %51, %55
  %57 = select i1 %56, i32 %48, i32 0
  br label %58

58:                                               ; preds = %47, %40
  %59 = phi i32 [ %57, %47 ], [ %44, %40 ]
  %60 = sext i32 %59 to i64
  %61 = getelementptr inbounds [8 x i32], [8 x i32]* %4, i64 0, i64 %42
  %62 = icmp sgt i32 %41, 1
  br i1 %62, label %63, label %96

63:                                               ; preds = %58
  %64 = zext i32 %41 to i64
  %65 = getelementptr inbounds [8 x [8 x i32]], [8 x [8 x i32]]* %3, i64 0, i64 0, i64 %60
  %66 = load i32, i32* %65, align 4, !tbaa !5
  %67 = add nsw i64 %64, -1
  %68 = and i64 %67, 1
  %69 = icmp eq i32 %41, 2
  br i1 %69, label %86, label %70

70:                                               ; preds = %63
  %71 = and i64 %67, -2
  br label %72

72:                                               ; preds = %118, %70
  %73 = phi i32 [ %66, %70 ], [ %84, %118 ]
  %74 = phi i64 [ 1, %70 ], [ %119, %118 ]
  %75 = phi i64 [ %71, %70 ], [ %120, %118 ]
  %76 = getelementptr inbounds [8 x [8 x i32]], [8 x [8 x i32]]* %3, i64 0, i64 %74, i64 %60
  %77 = load i32, i32* %76, align 4, !tbaa !5
  %78 = icmp slt i32 %77, %73
  br i1 %78, label %79, label %81

79:                                               ; preds = %72
  %80 = trunc i64 %74 to i32
  store i32 %80, i32* %61, align 4, !tbaa !5
  br label %81

81:                                               ; preds = %72, %79
  %82 = add nuw nsw i64 %74, 1
  %83 = getelementptr inbounds [8 x [8 x i32]], [8 x [8 x i32]]* %3, i64 0, i64 %82, i64 %60
  %84 = load i32, i32* %83, align 4, !tbaa !5
  %85 = icmp slt i32 %84, %77
  br i1 %85, label %116, label %118

86:                                               ; preds = %118, %63
  %87 = phi i32 [ %66, %63 ], [ %84, %118 ]
  %88 = phi i64 [ 1, %63 ], [ %119, %118 ]
  %89 = icmp eq i64 %68, 0
  br i1 %89, label %96, label %90

90:                                               ; preds = %86
  %91 = getelementptr inbounds [8 x [8 x i32]], [8 x [8 x i32]]* %3, i64 0, i64 %88, i64 %60
  %92 = load i32, i32* %91, align 4, !tbaa !5
  %93 = icmp slt i32 %92, %87
  br i1 %93, label %94, label %96

94:                                               ; preds = %90
  %95 = trunc i64 %88 to i32
  store i32 %95, i32* %61, align 4, !tbaa !5
  br label %96

96:                                               ; preds = %86, %90, %94, %58
  %97 = load i32, i32* %61, align 4, !tbaa !5
  %98 = zext i32 %97 to i64
  %99 = icmp eq i64 %42, %98
  br i1 %99, label %100, label %105

100:                                              ; preds = %96
  %101 = trunc i64 %42 to i32
  %102 = call i32 (i8*, ...) @printf(i8* nonnull dereferenceable(1) getelementptr inbounds ([7 x i8], [7 x i8]* @.str.2, i64 0, i64 0), i32 %59, i32 %101)
  %103 = add nsw i32 %43, 1
  %104 = load i32, i32* %1, align 4, !tbaa !5
  br label %105

105:                                              ; preds = %96, %100
  %106 = phi i32 [ %104, %100 ], [ %41, %96 ]
  %107 = phi i32 [ %103, %100 ], [ %43, %96 ]
  %108 = add nuw nsw i64 %42, 1
  %109 = sext i32 %106 to i64
  %110 = icmp slt i64 %108, %109
  br i1 %110, label %40, label %111, !llvm.loop !13

111:                                              ; preds = %105
  %112 = icmp eq i32 %107, 0
  br i1 %112, label %113, label %115

113:                                              ; preds = %0, %20, %111
  %114 = call i32 @puts(i8* nonnull dereferenceable(1) getelementptr inbounds ([3 x i8], [3 x i8]* @str, i64 0, i64 0))
  br label %115

115:                                              ; preds = %113, %111
  call void @llvm.lifetime.end.p0i8(i64 32, i8* nonnull %8) #5
  call void @llvm.lifetime.end.p0i8(i64 256, i8* nonnull %7) #5
  call void @llvm.lifetime.end.p0i8(i64 4, i8* nonnull %6) #5
  call void @llvm.lifetime.end.p0i8(i64 4, i8* nonnull %5) #5
  ret void

116:                                              ; preds = %81
  %117 = trunc i64 %82 to i32
  store i32 %117, i32* %61, align 4, !tbaa !5
  br label %118

118:                                              ; preds = %116, %81
  %119 = add nuw nsw i64 %74, 2
  %120 = add i64 %75, -2
  %121 = icmp eq i64 %120, 0
  br i1 %121, label %86, label %72, !llvm.loop !14
}

; Function Attrs: argmemonly mustprogress nofree nosync nounwind willreturn
declare void @llvm.lifetime.start.p0i8(i64 immarg, i8* nocapture) #1

; Function Attrs: argmemonly mustprogress nofree nounwind willreturn writeonly
declare void @llvm.memset.p0i8.i64(i8* nocapture writeonly, i8, i64, i1 immarg) #2

; Function Attrs: nofree nounwind
declare noundef i32 @__isoc99_scanf(i8* nocapture noundef readonly, ...) local_unnamed_addr #3

; Function Attrs: nofree nounwind
declare noundef i32 @printf(i8* nocapture noundef readonly, ...) local_unnamed_addr #3

; Function Attrs: argmemonly mustprogress nofree nosync nounwind willreturn
declare void @llvm.lifetime.end.p0i8(i64 immarg, i8* nocapture) #1

; Function Attrs: nofree nounwind
declare noundef i32 @puts(i8* nocapture noundef readonly) local_unnamed_addr #4


!llvm.module.flags = !{!0, !1, !2, !3}
!llvm.ident = !{!4}

!0 = !{i32 1, !"wchar_size", i32 4}
!1 = !{i32 7, !"PIC Level", i32 2}
!2 = !{i32 7, !"PIE Level", i32 2}
!3 = !{i32 7, !"uwtable", i32 1}
!4 = !{!"clang version 13.0.0"}
!5 = !{!6, !6, i64 0}
!6 = !{!"int", !7, i64 0}
!7 = !{!"omnipotent char", !8, i64 0}
!8 = !{!"Simple C/C++ TBAA"}
!9 = distinct !{!9, !10}
!10 = !{!"llvm.loop.mustprogress"}
!11 = distinct !{!11, !10, !12}
!12 = !{!"llvm.loop.unswitch.partial.disable"}
!13 = distinct !{!13, !10}
!14 = distinct !{!14, !10}
